target datalayout = "e-m:e-p270:32:32-p271:32:32-p272:64:64-i64:64-i128:128-f80:128-n8:16:32:64-S128"
target triple = "x86_64-unknown-linux-gnu"

%"class.sat::literal" = type { i32 }
%class.vector.89 = type { ptr }
%class.vector.91 = type { ptr }

@_ZN3satL12null_literalE = internal global %"class.sat::literal" zeroinitializer, align 4

; Function Attrs: mustprogress nounwind uwtable
define linkonce_odr hidden noundef ptr @_ZNK6vectorISt4pairIPN3euf5enodeES3_ELb0EjE4dataEv(ptr noundef nonnull align 8 dereferenceable(8) %this) #4 comdat align 2 {
entry:
  %this.addr = alloca ptr, align 8
  store ptr %this, ptr %this.addr, align 8
  %this1 = load ptr, ptr %this.addr, align 8
  %m_data = getelementptr inbounds %class.vector.89, ptr %this1, i32 0, i32 0
  %0 = load ptr, ptr %m_data, align 8
  ret ptr %0
}

; Function Attrs: mustprogress nounwind uwtable
define linkonce_odr hidden noundef i32 @_ZNK6vectorISt4pairIPN3euf5enodeES3_ELb0EjE4sizeEv(ptr noundef nonnull align 8 dereferenceable(8) %this) #4 comdat align 2 {
entry:
  %retval = alloca i32, align 4
  %this.addr = alloca ptr, align 8
  store ptr %this, ptr %this.addr, align 8
  %this1 = load ptr, ptr %this.addr, align 8
  %m_data = getelementptr inbounds %class.vector.89, ptr %this1, i32 0, i32 0
  %0 = load ptr, ptr %m_data, align 8
  %cmp = icmp eq ptr %0, null
  br i1 %cmp, label %if.then, label %if.end

if.then:                                          ; preds = %entry
  store i32 0, ptr %retval, align 4
  br label %return

if.end:                                           ; preds = %entry
  %m_data2 = getelementptr inbounds %class.vector.89, ptr %this1, i32 0, i32 0
  %1 = load ptr, ptr %m_data2, align 8
  %arrayidx = getelementptr inbounds i32, ptr %1, i64 -1
  %2 = load i32, ptr %arrayidx, align 4
  store i32 %2, ptr %retval, align 4
  br label %return

return:                                           ; preds = %if.end, %if.then
  %3 = load i32, ptr %retval, align 4
  ret i32 %3
}

; Function Attrs: mustprogress nounwind uwtable
define linkonce_odr hidden noundef ptr @_ZNK6vectorIN3sat7literalELb0EjE4dataEv(ptr noundef nonnull align 8 dereferenceable(8) %this) #4 comdat align 2 {
entry:
  %this.addr = alloca ptr, align 8
  store ptr %this, ptr %this.addr, align 8
  %this1 = load ptr, ptr %this.addr, align 8
  %m_data = getelementptr inbounds %class.vector.91, ptr %this1, i32 0, i32 0
  %0 = load ptr, ptr %m_data, align 8
  ret ptr %0
}

; Function Attrs: mustprogress nounwind uwtable
define linkonce_odr hidden noundef i32 @_ZNK6vectorIN3sat7literalELb0EjE4sizeEv(ptr noundef nonnull align 8 dereferenceable(8) %this) #4 comdat align 2 {
entry:
  %retval = alloca i32, align 4
  %this.addr = alloca ptr, align 8
  store ptr %this, ptr %this.addr, align 8
  %this1 = load ptr, ptr %this.addr, align 8
  %m_data = getelementptr inbounds %class.vector.91, ptr %this1, i32 0, i32 0
  %0 = load ptr, ptr %m_data, align 8
  %cmp = icmp eq ptr %0, null
  br i1 %cmp, label %if.then, label %if.end

if.then:                                          ; preds = %entry
  store i32 0, ptr %retval, align 4
  br label %return

if.end:                                           ; preds = %entry
  %m_data2 = getelementptr inbounds %class.vector.91, ptr %this1, i32 0, i32 0
  %1 = load ptr, ptr %m_data2, align 8
  %arrayidx = getelementptr inbounds i32, ptr %1, i64 -1
  %2 = load i32, ptr %arrayidx, align 4
  store i32 %2, ptr %retval, align 4
  br label %return

return:                                           ; preds = %if.end, %if.then
  %3 = load i32, ptr %retval, align 4
  ret i32 %3
}

; Function Attrs: mustprogress uwtable
define hidden noundef ptr @_ZN3euf10th_explain9propagateERNS_13th_euf_solverERK7svectorIN3sat7literalEjERKS3_ISt4pairIPNS_5enodeESB_EjESB_SB_PKNS_13th_proof_hintE(ptr noundef nonnull align 8 dereferenceable(108) %th, ptr noundef nonnull align 8 dereferenceable(8) %lits, ptr noundef nonnull align 8 dereferenceable(8) %eqs, ptr noundef %x, ptr noundef %y, ptr noundef %ph) #5 align 2 {
entry:
  %th.addr = alloca ptr, align 8
  %lits.addr = alloca ptr, align 8
  %eqs.addr = alloca ptr, align 8
  %x.addr = alloca ptr, align 8
  %y.addr = alloca ptr, align 8
  %ph.addr = alloca ptr, align 8
  %agg.tmp = alloca %"class.sat::literal", align 4
  store ptr %th, ptr %th.addr, align 8
  store ptr %lits, ptr %lits.addr, align 8
  store ptr %eqs, ptr %eqs.addr, align 8
  store ptr %x, ptr %x.addr, align 8
  store ptr %y, ptr %y.addr, align 8
  store ptr %ph, ptr %ph.addr, align 8
  %0 = load ptr, ptr %th.addr, align 8
  %1 = load ptr, ptr %lits.addr, align 8
  %call = call noundef i32 @_ZNK6vectorIN3sat7literalELb0EjE4sizeEv(ptr noundef nonnull align 8 dereferenceable(8) %1)
  %2 = load ptr, ptr %lits.addr, align 8
  %call1 = call noundef ptr @_ZNK6vectorIN3sat7literalELb0EjE4dataEv(ptr noundef nonnull align 8 dereferenceable(8) %2)
  %3 = load ptr, ptr %eqs.addr, align 8
  %call2 = call noundef i32 @_ZNK6vectorISt4pairIPN3euf5enodeES3_ELb0EjE4sizeEv(ptr noundef nonnull align 8 dereferenceable(8) %3)
  %4 = load ptr, ptr %eqs.addr, align 8
  %call3 = call noundef ptr @_ZNK6vectorISt4pairIPN3euf5enodeES3_ELb0EjE4dataEv(ptr noundef nonnull align 8 dereferenceable(8) %4)
  call void @llvm.memcpy.p0.p0.i64(ptr align 4 %agg.tmp, ptr align 4 @_ZN3satL12null_literalE, i64 4, i1 false)
  %5 = load ptr, ptr %x.addr, align 8
  %6 = load ptr, ptr %y.addr, align 8
  %7 = load ptr, ptr %ph.addr, align 8
  %coerce.dive = getelementptr inbounds %"class.sat::literal", ptr %agg.tmp, i32 0, i32 0
  %8 = load i32, ptr %coerce.dive, align 4
  %call4 = call noundef ptr @_ZN3euf10th_explain2mkERNS_13th_euf_solverEjPKN3sat7literalEjPKSt4pairIPNS_5enodeES9_ES4_S9_S9_PKNS_13th_proof_hintE(ptr noundef nonnull align 8 dereferenceable(108) %0, i32 noundef %call, ptr noundef %call1, i32 noundef %call2, ptr noundef %call3, i32 %8, ptr noundef %5, ptr noundef %6, ptr noundef %7)
  ret ptr %call4
}