; Function Attrs: mustprogress uwtable
define hidden noundef nonnull ptr @_ZN3euf10th_explain9propagateERNS_13th_euf_solverERK7svectorIN3sat7literalEjERKS3_ISt4pairIPNS_5enodeESB_EjESB_SB_PKNS_13th_proof_hintE(ptr noundef nonnull align 8 dereferenceable(108) %th, ptr nocapture noundef nonnull readonly align 8 dereferenceable(8) %lits, ptr nocapture noundef nonnull readonly align 8 dereferenceable(8) %eqs, ptr noundef %x, ptr noundef %y, ptr noundef %ph) local_unnamed_addr #3 align 2 {
entry:
  %0 = load ptr, ptr %lits, align 8
  %cmp.i = icmp eq ptr %0, null
  br i1 %cmp.i, label %_ZNK6vectorIN3sat7literalELb0EjE4sizeEv.exit, label %if.end.i

if.end.i:                                         ; preds = %entry
  %arrayidx.i = getelementptr inbounds i8, ptr %0, i64 -4
  %1 = load i32, ptr %arrayidx.i, align 4
  br label %_ZNK6vectorIN3sat7literalELb0EjE4sizeEv.exit

_ZNK6vectorIN3sat7literalELb0EjE4sizeEv.exit:     ; preds = %entry, %if.end.i
  %retval.0.i = phi i32 [ %1, %if.end.i ], [ 0, %entry ]
  %2 = load ptr, ptr %eqs, align 8
  %cmp.i3 = icmp eq ptr %2, null
  br i1 %cmp.i3, label %_ZNK6vectorISt4pairIPN3euf5enodeES3_ELb0EjE4sizeEv.exit, label %if.end.i4

if.end.i4:                                        ; preds = %_ZNK6vectorIN3sat7literalELb0EjE4sizeEv.exit
  %arrayidx.i5 = getelementptr inbounds i8, ptr %2, i64 -4
  %3 = load i32, ptr %arrayidx.i5, align 4
  br label %_ZNK6vectorISt4pairIPN3euf5enodeES3_ELb0EjE4sizeEv.exit

_ZNK6vectorISt4pairIPN3euf5enodeES3_ELb0EjE4sizeEv.exit: ; preds = %_ZNK6vectorIN3sat7literalELb0EjE4sizeEv.exit, %if.end.i4
  %retval.0.i6 = phi i32 [ %3, %if.end.i4 ], [ 0, %_ZNK6vectorIN3sat7literalELb0EjE4sizeEv.exit ]
  %agg.tmp.sroa.0.0.copyload.b = load i1, ptr @_ZN3satL12null_literalE.0, align 4
  %agg.tmp.sroa.0.0.copyload = select i1 %agg.tmp.sroa.0.0.copyload.b, i32 -2, i32 0
  %call4 = tail call noundef ptr @_ZN3euf10th_explain2mkERNS_13th_euf_solverEjPKN3sat7literalEjPKSt4pairIPNS_5enodeES9_ES4_S9_S9_PKNS_13th_proof_hintE(ptr noundef nonnull align 8 dereferenceable(108) %th, i32 noundef %retval.0.i, ptr noundef %0, i32 noundef %retval.0.i6, ptr noundef %2, i32 %agg.tmp.sroa.0.0.copyload, ptr noundef %x, ptr noundef %y, ptr noundef %ph)
  ret ptr %call4
}